; Function Attrs: nounwind sspstrong uwtable
define internal void @handle_s_without_atn(ptr noundef %s) #0 {
entry:
  %dma = getelementptr inbounds nuw i8, ptr %s, i64 220
  %0 = load i32, ptr %dma, align 4
  %tobool.not = icmp eq i32 %0, 0
  br i1 %tobool.not, label %if.end, label %land.lhs.true

land.lhs.true:                                    ; preds = %entry
  %dma_enabled = getelementptr inbounds nuw i8, ptr %s, i64 444
  %1 = load i32, ptr %dma_enabled, align 4
  %tobool1.not = icmp eq i32 %1, 0
  br i1 %tobool1.not, label %if.then, label %if.end

if.then:                                          ; preds = %land.lhs.true
  %dma_cb = getelementptr inbounds nuw i8, ptr %s, i64 488
  store ptr @handle_s_without_atn, ptr %dma_cb, align 8
  br label %if.end9

if.end:                                           ; preds = %land.lhs.true, %entry
  %pdma_cb.i = getelementptr inbounds nuw i8, ptr %s, i64 496
  store i8 1, ptr %pdma_cb.i, align 8
  %call = tail call fastcc i32 @get_cmd(ptr noundef nonnull %s, i32 noundef 32)
  %cmp = icmp sgt i32 %call, 0
  br i1 %cmp, label %if.then2, label %if.else

if.then2:                                         ; preds = %if.end
  %cmdfifo_cdb_offset = getelementptr inbounds nuw i8, ptr %s, i64 432
  store i8 0, ptr %cmdfifo_cdb_offset, align 8
  %do_cmd = getelementptr inbounds nuw i8, ptr %s, i64 436
  store i32 0, ptr %do_cmd, align 4
  tail call fastcc void @do_cmd(ptr noundef nonnull %s)
  br label %if.end9

if.else:                                          ; preds = %if.end
  %cmp3 = icmp eq i32 %call, 0
  br i1 %cmp3, label %if.then4, label %if.end9

if.then4:                                         ; preds = %if.else
  %do_cmd5 = getelementptr inbounds nuw i8, ptr %s, i64 436
  store i32 1, ptr %do_cmd5, align 4
  %arrayidx = getelementptr i8, ptr %s, i64 166
  store i8 4, ptr %arrayidx, align 2
  %arrayidx7 = getelementptr i8, ptr %s, i64 164
  store i8 2, ptr %arrayidx7, align 4
  br label %if.end9

if.end9:                                          ; preds = %if.else, %if.then4, %if.then2, %if.then
  ret void
}